target datalayout = "e-m:e-p270:32:32-p271:32:32-p272:64:64-i64:64-i128:128-f80:128-n8:16:32:64-S128"
target triple = "x86_64-unknown-linux-gnu"

; Function Attrs: mustprogress nounwind uwtable
define internal noundef signext i8 @_ZL9U_FAILURE10UErrorCode(i32 noundef %code) #0 {
entry:
  %code.addr = alloca i32, align 4
  store i32 %code, ptr %code.addr, align 4
  %0 = load i32, ptr %code.addr, align 4
  %cmp = icmp sgt i32 %0, 0
  %conv = zext i1 %cmp to i8
  ret i8 %conv
}

; Function Attrs: mustprogress uwtable
define noundef i32 @_ZN6icu_7516DateIntervalInfo28calendarFieldToIntervalIndexE19UCalendarDateFieldsR10UErrorCode(i32 noundef %field, ptr noundef nonnull align 4 dereferenceable(4) %status) #1 align 2 {
entry:
  %retval = alloca i32, align 4
  %field.addr = alloca i32, align 4
  %status.addr = alloca ptr, align 8
  %index = alloca i32, align 4
  store i32 %field, ptr %field.addr, align 4
  store ptr %status, ptr %status.addr, align 8
  %0 = load ptr, ptr %status.addr, align 8
  %1 = load i32, ptr %0, align 4
  %call = call noundef signext i8 @_ZL9U_FAILURE10UErrorCode(i32 noundef %1)
  %tobool = icmp ne i8 %call, 0
  br i1 %tobool, label %if.then, label %if.end

if.then:                                          ; preds = %entry
  store i32 9, ptr %retval, align 4
  br label %return

if.end:                                           ; preds = %entry
  store i32 9, ptr %index, align 4
  %2 = load i32, ptr %field.addr, align 4
  switch i32 %2, label %sw.default [
    i32 0, label %sw.bb
    i32 1, label %sw.bb1
    i32 2, label %sw.bb2
    i32 5, label %sw.bb3
    i32 7, label %sw.bb3
    i32 9, label %sw.bb4
    i32 10, label %sw.bb5
    i32 11, label %sw.bb5
    i32 12, label %sw.bb6
    i32 13, label %sw.bb7
    i32 14, label %sw.bb8
  ]

sw.bb:                                            ; preds = %if.end
  store i32 0, ptr %index, align 4
  br label %sw.epilog

sw.bb1:                                           ; preds = %if.end
  store i32 1, ptr %index, align 4
  br label %sw.epilog

sw.bb2:                                           ; preds = %if.end
  store i32 2, ptr %index, align 4
  br label %sw.epilog

sw.bb3:                                           ; preds = %if.end, %if.end
  store i32 3, ptr %index, align 4
  br label %sw.epilog

sw.bb4:                                           ; preds = %if.end
  store i32 4, ptr %index, align 4
  br label %sw.epilog

sw.bb5:                                           ; preds = %if.end, %if.end
  store i32 5, ptr %index, align 4
  br label %sw.epilog

sw.bb6:                                           ; preds = %if.end
  store i32 6, ptr %index, align 4
  br label %sw.epilog

sw.bb7:                                           ; preds = %if.end
  store i32 7, ptr %index, align 4
  br label %sw.epilog

sw.bb8:                                           ; preds = %if.end
  store i32 8, ptr %index, align 4
  br label %sw.epilog

sw.default:                                       ; preds = %if.end
  %3 = load ptr, ptr %status.addr, align 8
  store i32 1, ptr %3, align 4
  br label %sw.epilog

sw.epilog:                                        ; preds = %sw.default, %sw.bb8, %sw.bb7, %sw.bb6, %sw.bb5, %sw.bb4, %sw.bb3, %sw.bb2, %sw.bb1, %sw.bb
  %4 = load i32, ptr %index, align 4
  store i32 %4, ptr %retval, align 4
  br label %return

return:                                           ; preds = %sw.epilog, %if.then
  %5 = load i32, ptr %retval, align 4
  ret i32 %5
}