; Function Attrs: mustprogress nofree norecurse nosync nounwind willreturn memory(argmem: readwrite) uwtable
define noundef i32 @_ZN6icu_7516DateIntervalInfo28calendarFieldToIntervalIndexE19UCalendarDateFieldsR10UErrorCode(i32 noundef %field, ptr nocapture noundef nonnull align 4 dereferenceable(4) %status) local_unnamed_addr #8 align 2 {
entry:
  %0 = load i32, ptr %status, align 4
  %cmp.i = icmp slt i32 %0, 1
  br i1 %cmp.i, label %if.end, label %return

if.end:                                           ; preds = %entry
  %1 = icmp ult i32 %field, 15
  br i1 %1, label %switch.hole_check, label %sw.default

sw.default:                                       ; preds = %switch.hole_check, %if.end
  store i32 1, ptr %status, align 4
  br label %return

switch.hole_check:                                ; preds = %if.end
  %switch.maskindex = trunc i32 %field to i16
  %switch.shifted = lshr i16 32423, %switch.maskindex
  %2 = and i16 %switch.shifted, 1
  %switch.lobit.not = icmp eq i16 %2, 0
  br i1 %switch.lobit.not, label %sw.default, label %switch.lookup

switch.lookup:                                    ; preds = %switch.hole_check
  %3 = zext nneg i32 %field to i64
  %switch.gep = getelementptr inbounds [15 x i32], ptr @switch.table._ZN6icu_7516DateIntervalInfo28calendarFieldToIntervalIndexE19UCalendarDateFieldsR10UErrorCode, i64 0, i64 %3
  %switch.load = load i32, ptr %switch.gep, align 4
  br label %return

return:                                           ; preds = %switch.lookup, %sw.default, %entry
  %retval.0 = phi i32 [ 9, %entry ], [ 9, %sw.default ], [ %switch.load, %switch.lookup ]
  ret i32 %retval.0
}